; Function Attrs: nounwind uwtable
define void @ossl_quic_channel_set_msg_callback_arg(ptr noundef captures(none) initializes((1080, 1088)) %0, ptr noundef %1) local_unnamed_addr #0 {
  %3 = getelementptr inbounds nuw i8, ptr %0, i64 1080
  store ptr %1, ptr %3, align 8, !tbaa !252
  %4 = getelementptr inbounds nuw i8, ptr %0, i64 1056
  %5 = load ptr, ptr %4, align 8, !tbaa !72
  tail call void @ossl_qtx_set_msg_callback_arg(ptr noundef %5, ptr noundef %1) #15
  %6 = getelementptr inbounds nuw i8, ptr %0, i64 216
  %7 = load ptr, ptr %6, align 8, !tbaa !109
  tail call void @ossl_quic_tx_packetiser_set_msg_callback_arg(ptr noundef %7, ptr noundef %1) #15
  %8 = getelementptr inbounds nuw i8, ptr %0, i64 1064
  %9 = load ptr, ptr %8, align 8, !tbaa !116
  tail call void @ossl_qrx_set_msg_callback_arg(ptr noundef %9, ptr noundef %1) #15
  ret void
}